target datalayout = "e-m:e-p270:32:32-p271:32:32-p272:64:64-i64:64-i128:128-f80:128-n8:16:32:64-S128"
target triple = "x86_64-pc-linux-gnu"

%struct._object = type { %union.anon, ptr }
%union.anon = type { i64 }

@_Py_NoneStruct = external global %struct._object, align 8
@.str.51 = private unnamed_addr constant [17 x i8] c"PyErr_Occurred()\00", align 1
@.str.52 = private unnamed_addr constant [47 x i8] c"../cpython/Modules/_testlimitedcapi/abstract.c\00", align 1
@.str.53 = private unnamed_addr constant [18 x i8] c"!PyErr_Occurred()\00", align 1
@__PRETTY_FUNCTION__.sequence_size = private unnamed_addr constant [48 x i8] c"PyObject *sequence_size(PyObject *, PyObject *)\00", align 1

; Function Attrs: nounwind uwtable
define internal ptr @sequence_size(ptr noundef %0, ptr noundef %1) #0 {
  %3 = alloca ptr, align 8
  %4 = alloca ptr, align 8
  %5 = alloca ptr, align 8
  %6 = alloca i64, align 8
  %7 = alloca i32, align 4
  store ptr %0, ptr %4, align 8, !tbaa !3
  store ptr %1, ptr %5, align 8, !tbaa !3
  br label %8

8:                                                ; preds = %2
  %9 = load ptr, ptr %5, align 8, !tbaa !3
  %10 = icmp eq ptr %9, @_Py_NoneStruct
  br i1 %10, label %11, label %12

11:                                               ; preds = %8
  store ptr null, ptr %5, align 8, !tbaa !3
  br label %12

12:                                               ; preds = %11, %8
  br label %13

13:                                               ; preds = %12
  br label %14

14:                                               ; preds = %13
  call void @llvm.lifetime.start.p0(i64 8, ptr %6) #4
  %15 = load ptr, ptr %5, align 8, !tbaa !3
  %16 = call i64 @PySequence_Size(ptr noundef %15)
  store i64 %16, ptr %6, align 8, !tbaa !12
  %17 = load i64, ptr %6, align 8, !tbaa !12
  %18 = icmp eq i64 %17, -1
  br i1 %18, label %19, label %26

19:                                               ; preds = %14
  %20 = call ptr @PyErr_Occurred()
  %21 = icmp ne ptr %20, null
  br i1 %21, label %22, label %23

22:                                               ; preds = %19
  br label %25

23:                                               ; preds = %19
  call void @__assert_fail(ptr noundef @.str.51, ptr noundef @.str.52, i32 noundef 335, ptr noundef @__PRETTY_FUNCTION__.sequence_size) #5
  unreachable

24:                                               ; No predecessors!
  br label %25

25:                                               ; preds = %24, %22
  store ptr null, ptr %3, align 8
  store i32 1, ptr %7, align 4
  br label %35

26:                                               ; preds = %14
  %27 = call ptr @PyErr_Occurred()
  %28 = icmp ne ptr %27, null
  br i1 %28, label %30, label %29

29:                                               ; preds = %26
  br label %32

30:                                               ; preds = %26
  call void @__assert_fail(ptr noundef @.str.53, ptr noundef @.str.52, i32 noundef 335, ptr noundef @__PRETTY_FUNCTION__.sequence_size) #5
  unreachable

31:                                               ; No predecessors!
  br label %32

32:                                               ; preds = %31, %29
  %33 = load i64, ptr %6, align 8, !tbaa !12
  %34 = call ptr @PyLong_FromSsize_t(i64 noundef %33)
  store ptr %34, ptr %3, align 8
  store i32 1, ptr %7, align 4
  br label %35

35:                                               ; preds = %32, %25
  call void @llvm.lifetime.end.p0(i64 8, ptr %6) #4
  br label %36

36:                                               ; preds = %35
  %37 = load ptr, ptr %3, align 8
  ret ptr %37
}