; Function Attrs: nounwind uwtable
define internal ptr @sequence_size(ptr readnone captures(none) %0, ptr noundef %1) #0 {
  %3 = icmp eq ptr %1, @_Py_NoneStruct
  %spec.store.select = select i1 %3, ptr null, ptr %1
  %4 = tail call i64 @PySequence_Size(ptr noundef %spec.store.select) #4
  %5 = icmp eq i64 %4, -1
  %6 = tail call ptr @PyErr_Occurred() #4
  %.not5 = icmp eq ptr %6, null
  br i1 %5, label %7, label %9

7:                                                ; preds = %2
  br i1 %.not5, label %8, label %13

8:                                                ; preds = %7
  tail call void @__assert_fail(ptr noundef nonnull @.str.51, ptr noundef nonnull @.str.52, i32 noundef 335, ptr noundef nonnull @__PRETTY_FUNCTION__.sequence_size) #5
  unreachable

9:                                                ; preds = %2
  br i1 %.not5, label %11, label %10

10:                                               ; preds = %9
  tail call void @__assert_fail(ptr noundef nonnull @.str.53, ptr noundef nonnull @.str.52, i32 noundef 335, ptr noundef nonnull @__PRETTY_FUNCTION__.sequence_size) #5
  unreachable

11:                                               ; preds = %9
  %12 = tail call ptr @PyLong_FromSsize_t(i64 noundef %4) #4
  br label %13

13:                                               ; preds = %7, %11
  %.0 = phi ptr [ %12, %11 ], [ null, %7 ]
  ret ptr %.0
}